; Function Attrs: nofree norecurse nosync nounwind memory(read, argmem: readwrite, inaccessiblemem: none) uwtable
define void @SUNDlsMat_DenseMatvec(ptr noundef readonly captures(none) %0, ptr noundef readonly captures(none) %1, ptr noundef captures(none) %2) local_unnamed_addr #1 {
  %4 = getelementptr inbounds nuw i8, ptr %0, i64 72
  %5 = load ptr, ptr %4, align 8, !tbaa !3
  %6 = getelementptr inbounds nuw i8, ptr %0, i64 8
  %7 = load i64, ptr %6, align 8, !tbaa !12
  %8 = getelementptr inbounds nuw i8, ptr %0, i64 16
  %9 = load i64, ptr %8, align 8, !tbaa !13
  %10 = icmp sgt i64 %7, 0
  br i1 %10, label %.preheader.i, label %SUNDlsMat_denseMatvec.exit

.preheader.i:                                     ; preds = %3
  %11 = shl nuw i64 %7, 3
  tail call void @llvm.memset.p0.i64(ptr align 8 %2, i8 0, i64 %11, i1 false), !tbaa !15
  %12 = icmp sgt i64 %9, 0
  br i1 %12, label %.lr.ph22.us.i, label %SUNDlsMat_denseMatvec.exit

.lr.ph22.us.i:                                    ; preds = %.preheader.i, %._crit_edge.us.i
  %.01823.us.i = phi i64 [ %24, %._crit_edge.us.i ], [ 0, %.preheader.i ]
  %13 = getelementptr inbounds nuw ptr, ptr %5, i64 %.01823.us.i
  %14 = load ptr, ptr %13, align 8, !tbaa !14
  %15 = getelementptr inbounds nuw double, ptr %1, i64 %.01823.us.i
  br label %16

16:                                               ; preds = %16, %.lr.ph22.us.i
  %.121.us.i = phi i64 [ 0, %.lr.ph22.us.i ], [ %23, %16 ]
  %17 = getelementptr inbounds nuw double, ptr %14, i64 %.121.us.i
  %18 = load double, ptr %17, align 8, !tbaa !15
  %19 = load double, ptr %15, align 8, !tbaa !15
  %20 = getelementptr inbounds nuw double, ptr %2, i64 %.121.us.i
  %21 = load double, ptr %20, align 8, !tbaa !15
  %22 = tail call double @llvm.fmuladd.f64(double %18, double %19, double %21)
  store double %22, ptr %20, align 8, !tbaa !15
  %23 = add nuw nsw i64 %.121.us.i, 1
  %exitcond.not.i = icmp eq i64 %23, %7
  br i1 %exitcond.not.i, label %._crit_edge.us.i, label %16

._crit_edge.us.i:                                 ; preds = %16
  %24 = add nuw nsw i64 %.01823.us.i, 1
  %exitcond27.not.i = icmp eq i64 %24, %9
  br i1 %exitcond27.not.i, label %SUNDlsMat_denseMatvec.exit, label %.lr.ph22.us.i

SUNDlsMat_denseMatvec.exit:                       ; preds = %._crit_edge.us.i, %3, %.preheader.i
  ret void
}